target datalayout = "e-m:e-p270:32:32-p271:32:32-p272:64:64-i64:64-i128:128-f80:128-n8:16:32:64-S128"
target triple = "x86_64-pc-linux-gnu"

%"struct.xgboost::PathElement" = type { i32, float, float, float }

; Function Attrs: mustprogress nounwind uwtable
define void @_ZN7xgboost10UnwindPathEPNS_11PathElementEjj(ptr noundef %0, i32 noundef %1, i32 noundef %2) #4 {
  %4 = alloca ptr, align 8
  %5 = alloca i32, align 4
  %6 = alloca i32, align 4
  %7 = alloca float, align 4
  %8 = alloca float, align 4
  %9 = alloca float, align 4
  %10 = alloca i32, align 4
  %11 = alloca float, align 4
  %12 = alloca i32, align 4
  store ptr %0, ptr %4, align 8, !tbaa !3
  store i32 %1, ptr %5, align 4, !tbaa !8
  store i32 %2, ptr %6, align 4, !tbaa !8
  call void @llvm.lifetime.start.p0(i64 4, ptr %7) #3
  %13 = load ptr, ptr %4, align 8, !tbaa !3
  %14 = load i32, ptr %6, align 4, !tbaa !8
  %15 = zext i32 %14 to i64
  %16 = getelementptr inbounds nuw %"struct.xgboost::PathElement", ptr %13, i64 %15
  %17 = getelementptr inbounds nuw %"struct.xgboost::PathElement", ptr %16, i32 0, i32 2
  %18 = load float, ptr %17, align 4, !tbaa !15
  store float %18, ptr %7, align 4, !tbaa !10
  call void @llvm.lifetime.start.p0(i64 4, ptr %8) #3
  %19 = load ptr, ptr %4, align 8, !tbaa !3
  %20 = load i32, ptr %6, align 4, !tbaa !8
  %21 = zext i32 %20 to i64
  %22 = getelementptr inbounds nuw %"struct.xgboost::PathElement", ptr %19, i64 %21
  %23 = getelementptr inbounds nuw %"struct.xgboost::PathElement", ptr %22, i32 0, i32 1
  %24 = load float, ptr %23, align 4, !tbaa !14
  store float %24, ptr %8, align 4, !tbaa !10
  call void @llvm.lifetime.start.p0(i64 4, ptr %9) #3
  %25 = load ptr, ptr %4, align 8, !tbaa !3
  %26 = load i32, ptr %5, align 4, !tbaa !8
  %27 = zext i32 %26 to i64
  %28 = getelementptr inbounds nuw %"struct.xgboost::PathElement", ptr %25, i64 %27
  %29 = getelementptr inbounds nuw %"struct.xgboost::PathElement", ptr %28, i32 0, i32 3
  %30 = load float, ptr %29, align 4, !tbaa !16
  store float %30, ptr %9, align 4, !tbaa !10
  call void @llvm.lifetime.start.p0(i64 4, ptr %10) #3
  %31 = load i32, ptr %5, align 4, !tbaa !8
  %32 = sub i32 %31, 1
  store i32 %32, ptr %10, align 4, !tbaa !8
  br label %33

33:                                               ; preds = %106, %3
  %34 = load i32, ptr %10, align 4, !tbaa !8
  %35 = icmp sge i32 %34, 0
  br i1 %35, label %37, label %36

36:                                               ; preds = %33
  call void @llvm.lifetime.end.p0(i64 4, ptr %10) #3
  br label %109

37:                                               ; preds = %33
  %38 = load float, ptr %7, align 4, !tbaa !10
  %39 = fcmp une float %38, 0.000000e+00
  br i1 %39, label %40, label %82

40:                                               ; preds = %37
  call void @llvm.lifetime.start.p0(i64 4, ptr %11) #3
  %41 = load ptr, ptr %4, align 8, !tbaa !3
  %42 = load i32, ptr %10, align 4, !tbaa !8
  %43 = sext i32 %42 to i64
  %44 = getelementptr inbounds %"struct.xgboost::PathElement", ptr %41, i64 %43
  %45 = getelementptr inbounds nuw %"struct.xgboost::PathElement", ptr %44, i32 0, i32 3
  %46 = load float, ptr %45, align 4, !tbaa !16
  store float %46, ptr %11, align 4, !tbaa !10
  %47 = load float, ptr %9, align 4, !tbaa !10
  %48 = load i32, ptr %5, align 4, !tbaa !8
  %49 = add i32 %48, 1
  %50 = uitofp i32 %49 to float
  %51 = fmul float %47, %50
  %52 = load i32, ptr %10, align 4, !tbaa !8
  %53 = add nsw i32 %52, 1
  %54 = sitofp i32 %53 to float
  %55 = load float, ptr %7, align 4, !tbaa !10
  %56 = fmul float %54, %55
  %57 = fdiv float %51, %56
  %58 = load ptr, ptr %4, align 8, !tbaa !3
  %59 = load i32, ptr %10, align 4, !tbaa !8
  %60 = sext i32 %59 to i64
  %61 = getelementptr inbounds %"struct.xgboost::PathElement", ptr %58, i64 %60
  %62 = getelementptr inbounds nuw %"struct.xgboost::PathElement", ptr %61, i32 0, i32 3
  store float %57, ptr %62, align 4, !tbaa !16
  %63 = load float, ptr %11, align 4, !tbaa !10
  %64 = load ptr, ptr %4, align 8, !tbaa !3
  %65 = load i32, ptr %10, align 4, !tbaa !8
  %66 = sext i32 %65 to i64
  %67 = getelementptr inbounds %"struct.xgboost::PathElement", ptr %64, i64 %66
  %68 = getelementptr inbounds nuw %"struct.xgboost::PathElement", ptr %67, i32 0, i32 3
  %69 = load float, ptr %68, align 4, !tbaa !16
  %70 = load float, ptr %8, align 4, !tbaa !10
  %71 = fmul float %69, %70
  %72 = load i32, ptr %5, align 4, !tbaa !8
  %73 = load i32, ptr %10, align 4, !tbaa !8
  %74 = sub i32 %72, %73
  %75 = uitofp i32 %74 to float
  %76 = fmul float %71, %75
  %77 = load i32, ptr %5, align 4, !tbaa !8
  %78 = add i32 %77, 1
  %79 = uitofp i32 %78 to float
  %80 = fdiv float %76, %79
  %81 = fsub float %63, %80
  store float %81, ptr %9, align 4, !tbaa !10
  call void @llvm.lifetime.end.p0(i64 4, ptr %11) #3
  br label %105

82:                                               ; preds = %37
  %83 = load ptr, ptr %4, align 8, !tbaa !3
  %84 = load i32, ptr %10, align 4, !tbaa !8
  %85 = sext i32 %84 to i64
  %86 = getelementptr inbounds %"struct.xgboost::PathElement", ptr %83, i64 %85
  %87 = getelementptr inbounds nuw %"struct.xgboost::PathElement", ptr %86, i32 0, i32 3
  %88 = load float, ptr %87, align 4, !tbaa !16
  %89 = load i32, ptr %5, align 4, !tbaa !8
  %90 = add i32 %89, 1
  %91 = uitofp i32 %90 to float
  %92 = fmul float %88, %91
  %93 = load float, ptr %8, align 4, !tbaa !10
  %94 = load i32, ptr %5, align 4, !tbaa !8
  %95 = load i32, ptr %10, align 4, !tbaa !8
  %96 = sub i32 %94, %95
  %97 = uitofp i32 %96 to float
  %98 = fmul float %93, %97
  %99 = fdiv float %92, %98
  %100 = load ptr, ptr %4, align 8, !tbaa !3
  %101 = load i32, ptr %10, align 4, !tbaa !8
  %102 = sext i32 %101 to i64
  %103 = getelementptr inbounds %"struct.xgboost::PathElement", ptr %100, i64 %102
  %104 = getelementptr inbounds nuw %"struct.xgboost::PathElement", ptr %103, i32 0, i32 3
  store float %99, ptr %104, align 4, !tbaa !16
  br label %105

105:                                              ; preds = %82, %40
  br label %106

106:                                              ; preds = %105
  %107 = load i32, ptr %10, align 4, !tbaa !8
  %108 = add nsw i32 %107, -1
  store i32 %108, ptr %10, align 4, !tbaa !8
  br label %33, !llvm.loop !19

109:                                              ; preds = %36
  call void @llvm.lifetime.start.p0(i64 4, ptr %12) #3
  %110 = load i32, ptr %6, align 4, !tbaa !8
  store i32 %110, ptr %12, align 4, !tbaa !8
  br label %111

111:                                              ; preds = %153, %109
  %112 = load i32, ptr %12, align 4, !tbaa !8
  %113 = load i32, ptr %5, align 4, !tbaa !8
  %114 = icmp ult i32 %112, %113
  br i1 %114, label %116, label %115

115:                                              ; preds = %111
  call void @llvm.lifetime.end.p0(i64 4, ptr %12) #3
  br label %156

116:                                              ; preds = %111
  %117 = load ptr, ptr %4, align 8, !tbaa !3
  %118 = load i32, ptr %12, align 4, !tbaa !8
  %119 = add i32 %118, 1
  %120 = zext i32 %119 to i64
  %121 = getelementptr inbounds nuw %"struct.xgboost::PathElement", ptr %117, i64 %120
  %122 = getelementptr inbounds nuw %"struct.xgboost::PathElement", ptr %121, i32 0, i32 0
  %123 = load i32, ptr %122, align 4, !tbaa !12
  %124 = load ptr, ptr %4, align 8, !tbaa !3
  %125 = load i32, ptr %12, align 4, !tbaa !8
  %126 = zext i32 %125 to i64
  %127 = getelementptr inbounds nuw %"struct.xgboost::PathElement", ptr %124, i64 %126
  %128 = getelementptr inbounds nuw %"struct.xgboost::PathElement", ptr %127, i32 0, i32 0
  store i32 %123, ptr %128, align 4, !tbaa !12
  %129 = load ptr, ptr %4, align 8, !tbaa !3
  %130 = load i32, ptr %12, align 4, !tbaa !8
  %131 = add i32 %130, 1
  %132 = zext i32 %131 to i64
  %133 = getelementptr inbounds nuw %"struct.xgboost::PathElement", ptr %129, i64 %132
  %134 = getelementptr inbounds nuw %"struct.xgboost::PathElement", ptr %133, i32 0, i32 1
  %135 = load float, ptr %134, align 4, !tbaa !14
  %136 = load ptr, ptr %4, align 8, !tbaa !3
  %137 = load i32, ptr %12, align 4, !tbaa !8
  %138 = zext i32 %137 to i64
  %139 = getelementptr inbounds nuw %"struct.xgboost::PathElement", ptr %136, i64 %138
  %140 = getelementptr inbounds nuw %"struct.xgboost::PathElement", ptr %139, i32 0, i32 1
  store float %135, ptr %140, align 4, !tbaa !14
  %141 = load ptr, ptr %4, align 8, !tbaa !3
  %142 = load i32, ptr %12, align 4, !tbaa !8
  %143 = add i32 %142, 1
  %144 = zext i32 %143 to i64
  %145 = getelementptr inbounds nuw %"struct.xgboost::PathElement", ptr %141, i64 %144
  %146 = getelementptr inbounds nuw %"struct.xgboost::PathElement", ptr %145, i32 0, i32 2
  %147 = load float, ptr %146, align 4, !tbaa !15
  %148 = load ptr, ptr %4, align 8, !tbaa !3
  %149 = load i32, ptr %12, align 4, !tbaa !8
  %150 = zext i32 %149 to i64
  %151 = getelementptr inbounds nuw %"struct.xgboost::PathElement", ptr %148, i64 %150
  %152 = getelementptr inbounds nuw %"struct.xgboost::PathElement", ptr %151, i32 0, i32 2
  store float %147, ptr %152, align 4, !tbaa !15
  br label %153

153:                                              ; preds = %116
  %154 = load i32, ptr %12, align 4, !tbaa !8
  %155 = add i32 %154, 1
  store i32 %155, ptr %12, align 4, !tbaa !8
  br label %111, !llvm.loop !20

156:                                              ; preds = %115
  call void @llvm.lifetime.end.p0(i64 4, ptr %9) #3
  call void @llvm.lifetime.end.p0(i64 4, ptr %8) #3
  call void @llvm.lifetime.end.p0(i64 4, ptr %7) #3
  ret void
}