; Function Attrs: mustprogress nofree norecurse nosync nounwind memory(argmem: readwrite) uwtable
define void @_ZN7xgboost10UnwindPathEPNS_11PathElementEjj(ptr noundef captures(none) %0, i32 noundef %1, i32 noundef %2) local_unnamed_addr #3 {
  %4 = zext i32 %2 to i64
  %5 = getelementptr inbounds nuw %"struct.xgboost::PathElement", ptr %0, i64 %4
  %6 = getelementptr inbounds nuw i8, ptr %5, i64 8
  %7 = load float, ptr %6, align 4, !tbaa !10
  %8 = getelementptr inbounds nuw i8, ptr %5, i64 4
  %9 = load float, ptr %8, align 4, !tbaa !9
  %.04951 = add i32 %1, -1
  %10 = icmp sgt i32 %.04951, -1
  br i1 %10, label %.lr.ph, label %.preheader

.lr.ph:                                           ; preds = %3
  %11 = fcmp une float %7, 0.000000e+00
  %12 = add nuw i32 %1, 1
  %13 = uitofp i32 %12 to float
  br i1 %11, label %.lr.ph.split.us.preheader, label %.lr.ph.split.preheader

.lr.ph.split.preheader:                           ; preds = %.lr.ph
  %14 = zext nneg i32 %.04951 to i64
  br label %.lr.ph.split

.lr.ph.split.us.preheader:                        ; preds = %.lr.ph
  %15 = zext i32 %1 to i64
  %16 = getelementptr inbounds nuw %"struct.xgboost::PathElement", ptr %0, i64 %15, i32 3
  %17 = load float, ptr %16, align 4, !tbaa !11
  %18 = zext nneg i32 %.04951 to i64
  br label %.lr.ph.split.us

.lr.ph.split.us:                                  ; preds = %.lr.ph.split.us.preheader, %.lr.ph.split.us
  %indvars.iv59 = phi i64 [ %18, %.lr.ph.split.us.preheader ], [ %indvars.iv.next60, %.lr.ph.split.us ]
  %.04853.us = phi float [ %17, %.lr.ph.split.us.preheader ], [ %31, %.lr.ph.split.us ]
  %.049.in52.us = phi i32 [ %1, %.lr.ph.split.us.preheader ], [ %26, %.lr.ph.split.us ]
  %19 = getelementptr inbounds nuw %"struct.xgboost::PathElement", ptr %0, i64 %indvars.iv59, i32 3
  %20 = load float, ptr %19, align 4, !tbaa !11
  %21 = fmul float %.04853.us, %13
  %22 = uitofp nneg i32 %.049.in52.us to float
  %23 = fmul float %7, %22
  %24 = fdiv float %21, %23
  store float %24, ptr %19, align 4, !tbaa !11
  %25 = fmul float %9, %24
  %26 = trunc nuw nsw i64 %indvars.iv59 to i32
  %27 = sub i32 %1, %26
  %28 = uitofp i32 %27 to float
  %29 = fmul float %25, %28
  %30 = fdiv float %29, %13
  %31 = fsub float %20, %30
  %indvars.iv.next60 = add nsw i64 %indvars.iv59, -1
  %.not66 = icmp eq i64 %indvars.iv59, 0
  br i1 %.not66, label %.preheader, label %.lr.ph.split.us, !llvm.loop !14

.preheader:                                       ; preds = %.lr.ph.split, %.lr.ph.split.us, %3
  %32 = icmp ult i32 %2, %1
  br i1 %32, label %.lr.ph56.preheader, label %._crit_edge

.lr.ph56.preheader:                               ; preds = %.preheader
  %wide.trip.count = zext i32 %1 to i64
  br label %.lr.ph56

.lr.ph.split:                                     ; preds = %.lr.ph.split.preheader, %.lr.ph.split
  %indvars.iv = phi i64 [ %14, %.lr.ph.split.preheader ], [ %indvars.iv.next, %.lr.ph.split ]
  %33 = getelementptr inbounds nuw %"struct.xgboost::PathElement", ptr %0, i64 %indvars.iv, i32 3
  %34 = load float, ptr %33, align 4, !tbaa !11
  %35 = fmul float %34, %13
  %36 = trunc nuw nsw i64 %indvars.iv to i32
  %37 = sub i32 %1, %36
  %38 = uitofp i32 %37 to float
  %39 = fmul float %9, %38
  %40 = fdiv float %35, %39
  store float %40, ptr %33, align 4, !tbaa !11
  %indvars.iv.next = add nsw i64 %indvars.iv, -1
  %.not = icmp eq i64 %indvars.iv, 0
  br i1 %.not, label %.preheader, label %.lr.ph.split, !llvm.loop !14

._crit_edge:                                      ; preds = %.lr.ph56, %.preheader
  ret void

.lr.ph56:                                         ; preds = %.lr.ph56.preheader, %.lr.ph56
  %indvars.iv62 = phi i64 [ %4, %.lr.ph56.preheader ], [ %indvars.iv.next63, %.lr.ph56 ]
  %indvars.iv.next63 = add nuw nsw i64 %indvars.iv62, 1
  %41 = getelementptr inbounds nuw %"struct.xgboost::PathElement", ptr %0, i64 %indvars.iv.next63
  %42 = load i32, ptr %41, align 4, !tbaa !3
  %43 = getelementptr inbounds nuw %"struct.xgboost::PathElement", ptr %0, i64 %indvars.iv62
  store i32 %42, ptr %43, align 4, !tbaa !3
  %44 = getelementptr inbounds nuw i8, ptr %41, i64 4
  %45 = load float, ptr %44, align 4, !tbaa !9
  %46 = getelementptr inbounds nuw i8, ptr %43, i64 4
  store float %45, ptr %46, align 4, !tbaa !9
  %47 = getelementptr inbounds nuw i8, ptr %41, i64 8
  %48 = load float, ptr %47, align 4, !tbaa !10
  %49 = getelementptr inbounds nuw i8, ptr %43, i64 8
  store float %48, ptr %49, align 4, !tbaa !10
  %exitcond.not = icmp eq i64 %indvars.iv.next63, %wide.trip.count
  br i1 %exitcond.not, label %._crit_edge, label %.lr.ph56, !llvm.loop !15
}